; Function Attrs: mustprogress uwtable
define void @_ZN32pxrInternal_v0_24__pxrReserved__17UsdGeomXformCache22GetLocalTransformationERKNS_7UsdPrimEPb(ptr dead_on_unwind noalias writable sret(%"class.pxrInternal_v0_24__pxrReserved__::GfMatrix4d") align 8 %0, ptr noundef nonnull align 8 dereferenceable(64) %1, ptr noundef nonnull align 8 dereferenceable(32) %2, ptr noundef writeonly %3) local_unnamed_addr #2 align 2 {
  %5 = alloca %"class.pxrInternal_v0_24__pxrReserved__::TfCallContext", align 8
  %6 = alloca %"class.pxrInternal_v0_24__pxrReserved__::TfCallContext", align 8
  %.not = icmp eq ptr %3, null
  br i1 %.not, label %7, label %13

7:                                                ; preds = %4
  store ptr @.str.4, ptr %5, align 8
  %8 = getelementptr inbounds nuw i8, ptr %5, i64 8
  store ptr @__func__._ZN32pxrInternal_v0_24__pxrReserved__17UsdGeomXformCache22GetLocalTransformationERKNS_7UsdPrimEPb, ptr %8, align 8
  %9 = getelementptr inbounds nuw i8, ptr %5, i64 16
  store i64 102, ptr %9, align 8
  %10 = getelementptr inbounds nuw i8, ptr %5, i64 24
  store ptr @__PRETTY_FUNCTION__._ZN32pxrInternal_v0_24__pxrReserved__17UsdGeomXformCache22GetLocalTransformationERKNS_7UsdPrimEPb, ptr %10, align 8
  %11 = getelementptr inbounds nuw i8, ptr %5, i64 32
  store i8 0, ptr %11, align 8
  call void (ptr, i32, ptr, ...) @_ZN32pxrInternal_v0_24__pxrReserved__18Tf_PostErrorHelperERKNS_13TfCallContextENS_16TfDiagnosticTypeEPKcz(ptr noundef nonnull align 8 dereferenceable(33) %5, i32 noundef 1, ptr noundef nonnull @.str.6)
  %12 = call noundef nonnull align 8 dereferenceable(128) ptr @_ZN32pxrInternal_v0_24__pxrReserved__10GfMatrix4d11SetDiagonalEd(ptr noundef nonnull align 8 dereferenceable(128) %0, double noundef 1.000000e+00)
  br label %28

13:                                               ; preds = %4
  %14 = tail call noundef ptr @_ZN32pxrInternal_v0_24__pxrReserved__17UsdGeomXformCache21_GetCacheEntryForPrimERKNS_7UsdPrimE(ptr noundef nonnull align 8 dereferenceable(64) %1, ptr noundef nonnull align 8 dereferenceable(32) %2)
  %15 = tail call noundef nonnull align 8 dereferenceable(128) ptr @_ZN32pxrInternal_v0_24__pxrReserved__10GfMatrix4d11SetDiagonalEd(ptr noundef nonnull align 8 dereferenceable(128) %0, double noundef 1.000000e+00)
  %.not8 = icmp eq ptr %14, null
  br i1 %.not8, label %16, label %.critedge

16:                                               ; preds = %13
  store ptr @.str.4, ptr %6, align 8
  %17 = getelementptr inbounds nuw i8, ptr %6, i64 8
  store ptr @__func__._ZN32pxrInternal_v0_24__pxrReserved__17UsdGeomXformCache22GetLocalTransformationERKNS_7UsdPrimEPb, ptr %17, align 8
  %18 = getelementptr inbounds nuw i8, ptr %6, i64 16
  store i64 108, ptr %18, align 8
  %19 = getelementptr inbounds nuw i8, ptr %6, i64 24
  store ptr @__PRETTY_FUNCTION__._ZN32pxrInternal_v0_24__pxrReserved__17UsdGeomXformCache22GetLocalTransformationERKNS_7UsdPrimEPb, ptr %19, align 8
  %20 = getelementptr inbounds nuw i8, ptr %6, i64 32
  store i8 0, ptr %20, align 8
  %21 = call noundef zeroext i1 @_ZN32pxrInternal_v0_24__pxrReserved__21Tf_FailedVerifyHelperERKNS_13TfCallContextEPKcS4_(ptr noundef nonnull align 8 dereferenceable(33) %6, ptr noundef nonnull @.str.5, ptr noundef null)
  br i1 %21, label %.critedge, label %27

.critedge:                                        ; preds = %13, %16
  %22 = getelementptr inbounds nuw i8, ptr %1, i64 56
  %.sroa.0.0.copyload = load double, ptr %22, align 8
  %23 = call noundef zeroext i1 @_ZNK32pxrInternal_v0_24__pxrReserved__16UsdGeomXformable10XformQuery22GetLocalTransformationEPNS_10GfMatrix4dENS_11UsdTimeCodeE(ptr noundef nonnull align 8 dereferenceable(25) %14, ptr noundef nonnull %0, double %.sroa.0.0.copyload)
  %24 = getelementptr inbounds nuw i8, ptr %14, i64 24
  %25 = load i8, ptr %24, align 8
  %26 = and i8 %25, 1
  store i8 %26, ptr %3, align 1
  br label %28

27:                                               ; preds = %16
  store i8 0, ptr %3, align 1
  br label %28

28:                                               ; preds = %.critedge, %27, %7
  ret void
}